Certificate:
    Data:
        Version: 3 (0x2)
        Serial Number: 1 (0x1)
        Signature Algorithm: dsaWithSHA1
        Issuer: C=CC, ST=State, L=Location, O=Organization, CN=dsa.mitls.org/emailAddress=root@mitls.org
        Validity
            Not Before: Jan  5 16:44:18 2018 GMT
            Not After : Mar 24 16:44:18 2026 GMT
        Subject: C=CC, ST=State, O=Organization, CN=dsa.cert.mitls.org/emailAddress=root@mitls.org
        Subject Public Key Info:
            Public Key Algorithm: dsaEncryption
            DSA Public Key:
                pub: 
                    73:59:79:74:f1:15:68:24:7a:6c:62:20:0b:d5:3c:
                    03:50:aa:ad:84:d8:04:09:61:85:df:52:e4:b3:04:
                    c3:11:5a:1f:48:f8:a8:95:13:8e:ba:ac:16:54:4f:
                    2b:fe:ec:96:62:4d:54:80:43:ce:03:60:90:98:f9:
                    29:cc:bb:a6:34:74:b7:f0:c4:a8:0e:b7:06:9d:ff:
                    c6:fe:7f:6b:e5:51:07:ad:09:56:2e:49:12:fb:e6:
                    3f:42:4c:a2:ea:40:d1:d0:f3:45:1a:59:55:9d:5c:
                    75:b1:2e:34:88:29:fa:2a:be:f2:9c:7b:c3:47:4e:
                    1f:2e:87:85:e4:7d:48:06
                P:   
                    00:b0:da:e7:49:0f:87:cf:57:44:b8:0f:96:60:5c:
                    cb:29:6e:6a:c7:66:a4:e7:c6:a1:96:f6:1f:f1:33:
                    c5:dc:52:f0:4e:00:5a:5e:e2:12:7f:46:1e:cc:9f:
                    7b:58:94:cc:c5:d2:3d:11:ab:1c:4a:ed:f4:35:69:
                    9e:af:09:ac:c9:36:4d:e1:fb:fc:6c:b8:15:d1:57:
                    93:ec:82:fe:c1:de:e2:41:29:68:36:a6:8a:b6:ac:
                    d3:2d:9a:a5:7c:36:a4:31:ca:3f:f3:99:77:a8:ee:
                    0e:e9:75:05:9e:9e:b4:35:2a:24:83:7b:20:f4:86:
                    59:18:7d:95:e4:db:37:45:43
                Q:   
                    00:98:09:b8:e2:58:49:52:9a:49:6a:89:27:fb:73:
                    ea:cd:6c:e7:fe:ad
                G:   
                    24:2f:00:aa:59:0a:4b:0a:1a:9a:d3:d0:30:5b:07:
                    08:ee:ac:03:0c:0a:50:74:c8:58:af:e3:9a:c9:5d:
                    a9:ad:bc:f4:8b:fc:d4:7f:3f:f0:99:cc:50:05:28:
                    c4:07:69:3b:34:79:98:e9:d1:f4:d0:d1:eb:72:e2:
                    03:b7:56:3f:2b:0f:90:24:dd:d6:36:b0:f8:a1:db:
                    e8:80:64:33:ba:0a:0c:1c:9c:c0:61:ed:03:bf:06:
                    8e:08:43:ae:68:8c:47:8f:8e:69:ce:c3:4f:84:01:
                    5d:44:09:77:31:b7:0d:a7:ff:b4:8b:87:70:ff:d1:
                    6d:e3:a5:53:95:85:39:73
        X509v3 extensions:
            X509v3 Key Usage: 
                Digital Signature, Non Repudiation, Key Encipherment
            X509v3 Basic Constraints: 
                CA:FALSE
            Netscape Comment: 
                OpenSSL Generated Certificate
    Signature Algorithm: dsaWithSHA1
        30:2c:02:14:4c:81:77:fb:73:33:46:70:c7:9f:82:21:b2:d4:
        21:7e:3f:e5:42:35:02:14:79:02:54:bd:16:83:79:86:a3:52:
        96:a8:3e:f5:73:5a:39:90:bf:6a
-----BEGIN CERTIFICATE-----
MIIDaTCCAymgAwIBAgIBATAJBgcqhkjOOAQDMH4xCzAJBgNVBAYTAkNDMQ4wDAYD
VQQIDAVTdGF0ZTERMA8GA1UEBwwITG9jYXRpb24xFTATBgNVBAoMDE9yZ2FuaXph
dGlvbjEWMBQGA1UEAwwNZHNhLm1pdGxzLm9yZzEdMBsGCSqGSIb3DQEJARYOcm9v
dEBtaXRscy5vcmcwHhcNMTgwMTA1MTY0NDE4WhcNMjYwMzI0MTY0NDE4WjBwMQsw
CQYDVQQGEwJDQzEOMAwGA1UECAwFU3RhdGUxFTATBgNVBAoMDE9yZ2FuaXphdGlv
bjEbMBkGA1UEAwwSZHNhLmNlcnQubWl0bHMub3JnMR0wGwYJKoZIhvcNAQkBFg5y
b290QG1pdGxzLm9yZzCCAbYwggErBgcqhkjOOAQBMIIBHgKBgQCw2udJD4fPV0S4
D5ZgXMspbmrHZqTnxqGW9h/xM8XcUvBOAFpe4hJ/Rh7Mn3tYlMzF0j0RqxxK7fQ1
aZ6vCazJNk3h+/xsuBXRV5Psgv7B3uJBKWg2poq2rNMtmqV8NqQxyj/zmXeo7g7p
dQWenrQ1KiSDeyD0hlkYfZXk2zdFQwIVAJgJuOJYSVKaSWqJJ/tz6s1s5/6tAoGA
JC8AqlkKSwoamtPQMFsHCO6sAwwKUHTIWK/jmsldqa289Iv81H8/8JnMUAUoxAdp
OzR5mOnR9NDR63LiA7dWPysPkCTd1jaw+KHb6IBkM7oKDBycwGHtA78GjghDrmiM
R4+Oac7DT4QBXUQJdzG3Daf/tIuHcP/RbeOlU5WFOXMDgYQAAoGAc1l5dPEVaCR6
bGIgC9U8A1CqrYTYBAlhhd9S5LMEwxFaH0j4qJUTjrqsFlRPK/7slmJNVIBDzgNg
kJj5Kcy7pjR0t/DEqA63Bp3/xv5/a+VRB60JVi5JEvvmP0JMoupA0dDzRRpZVZ1c
dbEuNIgp+iq+8px7w0dOHy6HheR9SAajSDBGMAsGA1UdDwQEAwIF4DAJBgNVHRME
AjAAMCwGCWCGSAGG+EIBDQQfFh1PcGVuU1NMIEdlbmVyYXRlZCBDZXJ0aWZpY2F0
ZTAJBgcqhkjOOAQDAy8AMCwCFEyBd/tzM0Zwx5+CIbLUIX4/5UI1AhR5AlS9FoN5
hqNSlqg+9XNaOZC/ag==
-----END CERTIFICATE-----
