Certificate:
    Data:
        Version: 3 (0x2)
        Serial Number: 1 (0x1)
        Signature Algorithm: ecdsa-with-SHA1
        Issuer: C=CC, ST=State, L=Location, O=Organization, CN=ecdsa.mitls.org/emailAddress=root@mitls.org
        Validity
            Not Before: Jan  5 16:44:21 2018 GMT
            Not After : Mar 24 16:44:21 2026 GMT
        Subject: C=CC, ST=State, O=Organization, CN=ecdsa.cert.mitls.org/emailAddress=root@mitls.org
        Subject Public Key Info:
            Public Key Algorithm: id-ecPublicKey
            EC Public Key:
                pub: 
                    04:50:de:7e:04:6f:ad:80:89:d0:23:43:8f:da:0d:
                    4a:d4:8f:da:1d:7e:6e:c1:9e:33:2c:75:c3:a3:92:
                    3b:21:69:7f:e2:04:8b:97:70:4d:fe:5e:c0:1e:e6:
                    af:ad:36:6c:43:1a:50:d0:17:b0:2e:15:2a:9e:68:
                    7d:30:e6:84:8a
                ASN1 OID: prime256v1
        X509v3 extensions:
            X509v3 Key Usage: 
                Digital Signature, Non Repudiation, Key Encipherment
            X509v3 Basic Constraints: 
                CA:FALSE
            Netscape Comment: 
                OpenSSL Generated Certificate
    Signature Algorithm: ecdsa-with-SHA1
        30:45:02:21:00:ea:f3:68:e6:f7:17:b1:1b:ca:62:62:1a:59:
        e7:8c:dd:98:d5:6a:3d:0b:2d:d9:ab:99:eb:e9:d3:f3:bf:e4:
        26:02:20:4e:00:01:ff:ff:ec:70:95:d4:4b:5f:41:ce:f4:ac:
        63:e1:13:77:5b:07:2f:e9:4a:d2:14:2b:aa:e4:2b:af:ba
-----BEGIN CERTIFICATE-----
MIICKDCCAc+gAwIBAgIBATAJBgcqhkjOPQQBMIGAMQswCQYDVQQGEwJDQzEOMAwG
A1UECAwFU3RhdGUxETAPBgNVBAcMCExvY2F0aW9uMRUwEwYDVQQKDAxPcmdhbml6
YXRpb24xGDAWBgNVBAMMD2VjZHNhLm1pdGxzLm9yZzEdMBsGCSqGSIb3DQEJARYO
cm9vdEBtaXRscy5vcmcwHhcNMTgwMTA1MTY0NDIxWhcNMjYwMzI0MTY0NDIxWjBy
MQswCQYDVQQGEwJDQzEOMAwGA1UECAwFU3RhdGUxFTATBgNVBAoMDE9yZ2FuaXph
dGlvbjEdMBsGA1UEAwwUZWNkc2EuY2VydC5taXRscy5vcmcxHTAbBgkqhkiG9w0B
CQEWDnJvb3RAbWl0bHMub3JnMFkwEwYHKoZIzj0CAQYIKoZIzj0DAQcDQgAEUN5+
BG+tgInQI0OP2g1K1I/aHX5uwZ4zLHXDo5I7IWl/4gSLl3BN/l7AHuavrTZsQxpQ
0BewLhUqnmh9MOaEiqNIMEYwCwYDVR0PBAQDAgXgMAkGA1UdEwQCMAAwLAYJYIZI
AYb4QgENBB8WHU9wZW5TU0wgR2VuZXJhdGVkIENlcnRpZmljYXRlMAkGByqGSM49
BAEDSAAwRQIhAOrzaOb3F7EbymJiGlnnjN2Y1Wo9Cy3Zq5nr6dPzv+QmAiBOAAH/
/+xwldRLX0HO9Kxj4RN3Wwcv6UrSFCuq5Cuvug==
-----END CERTIFICATE-----
